target datalayout = "e-m:e-p270:32:32-p271:32:32-p272:64:64-i64:64-i128:128-f80:128-n8:16:32:64-S128"
target triple = "x86_64-pc-linux-gnu"

; Function Attrs: mustprogress nounwind uwtable
define linkonce_odr noundef zeroext i1 @_ZN5arrow8internal24may_have_validity_bitmapENS_4Type4typeE(i32 noundef %0) #0 comdat {
  %2 = alloca i1, align 1
  %3 = alloca i32, align 4
  store i32 %0, ptr %3, align 4, !tbaa !9
  %4 = load i32, ptr %3, align 4, !tbaa !9
  switch i32 %4, label %6 [
    i32 0, label %5
    i32 28, label %5
    i32 27, label %5
    i32 38, label %5
  ]

5:                                                ; preds = %1, %1, %1, %1
  store i1 false, ptr %2, align 1
  br label %7

6:                                                ; preds = %1
  store i1 true, ptr %2, align 1
  br label %7

7:                                                ; preds = %6, %5
  %8 = load i1, ptr %2, align 1
  ret i1 %8
}

; Function Attrs: mustprogress uwtable
define noundef zeroext i1 @_ZN5arrow3ipc8internal17HasValidityBitmapENS_4Type4typeENS0_15MetadataVersionE(i32 noundef %0, i8 noundef signext %1) #1 {
  %3 = alloca i32, align 4
  %4 = alloca i8, align 1
  store i32 %0, ptr %3, align 4, !tbaa !9
  store i8 %1, ptr %4, align 1, !tbaa !7
  %5 = load i8, ptr %4, align 1, !tbaa !7
  %6 = icmp slt i8 %5, 4
  br i1 %6, label %7, label %10

7:                                                ; preds = %2
  %8 = load i32, ptr %3, align 4, !tbaa !9
  %9 = icmp ne i32 %8, 0
  br label %13

10:                                               ; preds = %2
  %11 = load i32, ptr %3, align 4, !tbaa !9
  %12 = call noundef zeroext i1 @_ZN5arrow8internal24may_have_validity_bitmapENS_4Type4typeE(i32 noundef %11)
  br label %13

13:                                               ; preds = %10, %7
  %14 = phi i1 [ %9, %7 ], [ %12, %10 ]
  ret i1 %14
}