; Function Attrs: mustprogress nofree norecurse nosync nounwind willreturn memory(none) uwtable
define noundef zeroext i1 @_ZN5arrow3ipc8internal17HasValidityBitmapENS_4Type4typeENS0_15MetadataVersionE(i32 noundef %0, i8 noundef signext %1) local_unnamed_addr #0 {
  %3 = icmp slt i8 %1, 4
  br i1 %3, label %4, label %6

4:                                                ; preds = %2
  %5 = icmp ne i32 %0, 0
  br label %_ZN5arrow8internal24may_have_validity_bitmapENS_4Type4typeE.exit

6:                                                ; preds = %2
  %7 = icmp ult i32 %0, 39
  br i1 %7, label %switch.lookup, label %_ZN5arrow8internal24may_have_validity_bitmapENS_4Type4typeE.exit

switch.lookup:                                    ; preds = %6
  %switch.cast = zext nneg i32 %0 to i39
  %switch.downshift = lshr i39 274475253758, %switch.cast
  %switch.masked = trunc i39 %switch.downshift to i1
  br label %_ZN5arrow8internal24may_have_validity_bitmapENS_4Type4typeE.exit

_ZN5arrow8internal24may_have_validity_bitmapENS_4Type4typeE.exit: ; preds = %6, %switch.lookup, %4
  %8 = phi i1 [ %5, %4 ], [ %switch.masked, %switch.lookup ], [ true, %6 ]
  ret i1 %8
}